target datalayout = "e-m:e-p270:32:32-p271:32:32-p272:64:64-i64:64-i128:128-f80:128-n8:16:32:64-S128"
target triple = "x86_64-pc-linux-gnu"

%struct.async_fibre_st = type { %struct.ucontext_t, [1 x %struct.__jmp_buf_tag], i32 }
%struct.ucontext_t = type { i64, ptr, %struct.stack_t, %struct.mcontext_t, %struct.__sigset_t, %struct._libc_fpstate, [4 x i64] }
%struct.stack_t = type { ptr, i32, i64 }
%struct.mcontext_t = type { [23 x i64], ptr, [8 x i64] }
%struct.__sigset_t = type { [16 x i64] }
%struct._libc_fpstate = type { i16, i16, i16, i16, i64, i64, i32, i32, [8 x %struct._libc_fpxreg], [16 x %struct._libc_xmmreg], [24 x i32] }
%struct._libc_fpxreg = type { [4 x i16], i16, [3 x i16] }
%struct._libc_xmmreg = type { [4 x i32] }
%struct.__jmp_buf_tag = type { [8 x i64], i32, %struct.__sigset_t }
%struct.async_job_st = type { %struct.async_fibre_st, ptr, ptr, i32, i32, ptr, ptr }
%struct.async_pool_st = type { ptr, i64, i64 }

@ctxkey = internal global i32 0, align 4
@.str = private unnamed_addr constant [32 x i8] c"../openssl/crypto/async/async.c\00", align 1
@poolkey = internal global i32 0, align 4

; Function Attrs: nounwind uwtable
define ptr @async_get_ctx() #0 {
  %1 = call ptr @CRYPTO_THREAD_get_local(ptr noundef @ctxkey)
  ret ptr %1
}

; Function Attrs: nounwind uwtable
define internal void @async_job_free(ptr noundef %0) #0 {
  %2 = alloca ptr, align 8
  store ptr %0, ptr %2, align 8, !tbaa !22
  %3 = load ptr, ptr %2, align 8, !tbaa !22
  %4 = icmp ne ptr %3, null
  br i1 %4, label %5, label %12

5:                                                ; preds = %1
  %6 = load ptr, ptr %2, align 8, !tbaa !22
  %7 = getelementptr inbounds nuw %struct.async_job_st, ptr %6, i32 0, i32 2
  %8 = load ptr, ptr %7, align 8, !tbaa !27
  call void @CRYPTO_free(ptr noundef %8, ptr noundef @.str, i32 noundef 94)
  %9 = load ptr, ptr %2, align 8, !tbaa !22
  %10 = getelementptr inbounds nuw %struct.async_job_st, ptr %9, i32 0, i32 0
  call void @async_fibre_free(ptr noundef %10)
  %11 = load ptr, ptr %2, align 8, !tbaa !22
  call void @CRYPTO_free(ptr noundef %11, ptr noundef @.str, i32 noundef 96)
  br label %12

12:                                               ; preds = %5, %1
  ret void
}

; Function Attrs: inlinehint nounwind uwtable
define internal ptr @sk_ASYNC_JOB_pop(ptr noundef %0) #3 {
  %2 = alloca ptr, align 8
  store ptr %0, ptr %2, align 8, !tbaa !54
  %3 = load ptr, ptr %2, align 8, !tbaa !54
  %4 = call ptr @OPENSSL_sk_pop(ptr noundef %3)
  ret ptr %4
}

; Function Attrs: nounwind uwtable
define internal i32 @async_ctx_free() #0 {
  %1 = alloca i32, align 4
  %2 = alloca ptr, align 8
  %3 = alloca i32, align 4
  call void @llvm.lifetime.start.p0(i64 8, ptr %2) #8
  %4 = call ptr @async_get_ctx()
  store ptr %4, ptr %2, align 8, !tbaa !3
  %5 = call i32 @CRYPTO_THREAD_set_local(ptr noundef @ctxkey, ptr noundef null)
  %6 = icmp ne i32 %5, 0
  br i1 %6, label %8, label %7

7:                                                ; preds = %0
  store i32 0, ptr %1, align 4
  store i32 1, ptr %3, align 4
  br label %10

8:                                                ; preds = %0
  %9 = load ptr, ptr %2, align 8, !tbaa !3
  call void @CRYPTO_free(ptr noundef %9, ptr noundef @.str, i32 noundef 73)
  store i32 1, ptr %1, align 4
  store i32 1, ptr %3, align 4
  br label %10

10:                                               ; preds = %8, %7
  call void @llvm.lifetime.end.p0(i64 8, ptr %2) #8
  %11 = load i32, ptr %1, align 4
  ret i32 %11
}

; Function Attrs: inlinehint nounwind uwtable
define internal void @sk_ASYNC_JOB_free(ptr noundef %0) #3 {
  %2 = alloca ptr, align 8
  store ptr %0, ptr %2, align 8, !tbaa !54
  %3 = load ptr, ptr %2, align 8, !tbaa !54
  call void @OPENSSL_sk_free(ptr noundef %3)
  ret void
}

; Function Attrs: nounwind uwtable
define internal void @async_empty_pool(ptr noundef %0) #0 {
  %2 = alloca ptr, align 8
  %3 = alloca ptr, align 8
  %4 = alloca i32, align 4
  store ptr %0, ptr %2, align 8, !tbaa !45
  call void @llvm.lifetime.start.p0(i64 8, ptr %3) #8
  %5 = load ptr, ptr %2, align 8, !tbaa !45
  %6 = icmp eq ptr %5, null
  br i1 %6, label %12, label %7

7:                                                ; preds = %1
  %8 = load ptr, ptr %2, align 8, !tbaa !45
  %9 = getelementptr inbounds nuw %struct.async_pool_st, ptr %8, i32 0, i32 0
  %10 = load ptr, ptr %9, align 8, !tbaa !47
  %11 = icmp eq ptr %10, null
  br i1 %11, label %12, label %13

12:                                               ; preds = %7, %1
  store i32 1, ptr %4, align 4
  br label %24

13:                                               ; preds = %7
  br label %14

14:                                               ; preds = %20, %13
  %15 = load ptr, ptr %2, align 8, !tbaa !45
  %16 = getelementptr inbounds nuw %struct.async_pool_st, ptr %15, i32 0, i32 0
  %17 = load ptr, ptr %16, align 8, !tbaa !47
  %18 = call ptr @sk_ASYNC_JOB_pop(ptr noundef %17)
  store ptr %18, ptr %3, align 8, !tbaa !22
  %19 = load ptr, ptr %3, align 8, !tbaa !22
  call void @async_job_free(ptr noundef %19)
  br label %20

20:                                               ; preds = %14
  %21 = load ptr, ptr %3, align 8, !tbaa !22
  %22 = icmp ne ptr %21, null
  br i1 %22, label %14, label %23, !llvm.loop !55

23:                                               ; preds = %20
  store i32 0, ptr %4, align 4
  br label %24

24:                                               ; preds = %23, %12
  call void @llvm.lifetime.end.p0(i64 8, ptr %3) #8
  %25 = load i32, ptr %4, align 4
  switch i32 %25, label %27 [
    i32 0, label %26
    i32 1, label %26
  ]

26:                                               ; preds = %24, %24
  ret void

27:                                               ; preds = %24
  unreachable
}

; Function Attrs: nounwind uwtable
define internal void @async_delete_thread_state(ptr noundef %0) #0 {
  %2 = alloca ptr, align 8
  %3 = alloca ptr, align 8
  store ptr %0, ptr %2, align 8, !tbaa !39
  call void @llvm.lifetime.start.p0(i64 8, ptr %3) #8
  %4 = call ptr @CRYPTO_THREAD_get_local(ptr noundef @poolkey)
  store ptr %4, ptr %3, align 8, !tbaa !45
  %5 = load ptr, ptr %3, align 8, !tbaa !45
  %6 = icmp ne ptr %5, null
  br i1 %6, label %7, label %14

7:                                                ; preds = %1
  %8 = load ptr, ptr %3, align 8, !tbaa !45
  call void @async_empty_pool(ptr noundef %8)
  %9 = load ptr, ptr %3, align 8, !tbaa !45
  %10 = getelementptr inbounds nuw %struct.async_pool_st, ptr %9, i32 0, i32 0
  %11 = load ptr, ptr %10, align 8, !tbaa !47
  call void @sk_ASYNC_JOB_free(ptr noundef %11)
  %12 = load ptr, ptr %3, align 8, !tbaa !45
  call void @CRYPTO_free(ptr noundef %12, ptr noundef @.str, i32 noundef 414)
  %13 = call i32 @CRYPTO_THREAD_set_local(ptr noundef @poolkey, ptr noundef null)
  br label %14

14:                                               ; preds = %7, %1
  call void @async_local_cleanup()
  %15 = call i32 @async_ctx_free()
  call void @llvm.lifetime.end.p0(i64 8, ptr %3) #8
  ret void
}