; Function Attrs: nounwind uwtable
define internal void @async_delete_thread_state(ptr readnone captures(none) %0) #0 {
  %2 = tail call ptr @CRYPTO_THREAD_get_local(ptr noundef nonnull @poolkey) #8
  %.not = icmp eq ptr %2, null
  br i1 %.not, label %13, label %3

3:                                                ; preds = %1
  %4 = load ptr, ptr %2, align 8, !tbaa !32
  %5 = icmp eq ptr %4, null
  br i1 %5, label %async_empty_pool.exit, label %.split5.i

.split5.i:                                        ; preds = %3
  %6 = tail call ptr @OPENSSL_sk_pop(ptr noundef nonnull %4) #8
  %cond.i = icmp eq ptr %6, null
  br i1 %cond.i, label %async_empty_pool.exit, label %.split.i

.split.i:                                         ; preds = %.split5.i, %.split.i
  %.sink14.i = phi ptr [ %10, %.split.i ], [ %6, %.split5.i ]
  %7 = getelementptr inbounds nuw i8, ptr %.sink14.i, i64 1184
  %8 = load ptr, ptr %7, align 8, !tbaa !24
  tail call void @CRYPTO_free(ptr noundef %8, ptr noundef nonnull @.str, i32 noundef 94) #8
  tail call void @async_fibre_free(ptr noundef nonnull %.sink14.i) #8
  tail call void @CRYPTO_free(ptr noundef nonnull %.sink14.i, ptr noundef nonnull @.str, i32 noundef 96) #8
  %9 = load ptr, ptr %2, align 8, !tbaa !32
  %10 = tail call ptr @OPENSSL_sk_pop(ptr noundef %9) #8
  %cond10.i = icmp eq ptr %10, null
  br i1 %cond10.i, label %async_empty_pool.exit, label %.split.i

async_empty_pool.exit:                            ; preds = %.split.i, %3, %.split5.i
  %11 = load ptr, ptr %2, align 8, !tbaa !32
  tail call void @OPENSSL_sk_free(ptr noundef %11) #8
  tail call void @CRYPTO_free(ptr noundef nonnull %2, ptr noundef nonnull @.str, i32 noundef 414) #8
  %12 = tail call i32 @CRYPTO_THREAD_set_local(ptr noundef nonnull @poolkey, ptr noundef null) #8
  br label %13

13:                                               ; preds = %async_empty_pool.exit, %1
  tail call void @async_local_cleanup() #8
  %14 = tail call ptr @CRYPTO_THREAD_get_local(ptr noundef nonnull @ctxkey) #8
  %15 = tail call i32 @CRYPTO_THREAD_set_local(ptr noundef nonnull @ctxkey, ptr noundef null) #8
  %.not.i = icmp eq i32 %15, 0
  br i1 %.not.i, label %async_ctx_free.exit, label %16

16:                                               ; preds = %13
  tail call void @CRYPTO_free(ptr noundef %14, ptr noundef nonnull @.str, i32 noundef 73) #8
  br label %async_ctx_free.exit

async_ctx_free.exit:                              ; preds = %13, %16
  ret void
}